; Function Attrs: mustprogress nofree nounwind memory(readwrite, inaccessiblemem: write) uwtable
define dso_local noundef float @_ZNK34btDeformableBackwardEulerObjective11computeNormERK20btAlignedObjectArrayI9btVector3E(ptr nocapture noundef nonnull readnone align 8 dereferenceable(504) %this, ptr nocapture noundef nonnull readonly align 8 dereferenceable(25) %residual) local_unnamed_addr #13 align 2 {
entry:
  %m_size.i = getelementptr inbounds i8, ptr %residual, i64 4
  %0 = load i32, ptr %m_size.i, align 4
  %cmp5 = icmp sgt i32 %0, 0
  br i1 %cmp5, label %for.body.lr.ph, label %for.end

for.body.lr.ph:                                   ; preds = %entry
  %m_data.i = getelementptr inbounds i8, ptr %residual, i64 16
  %1 = load ptr, ptr %m_data.i, align 8
  %wide.trip.count = zext nneg i32 %0 to i64
  br label %for.body

for.body:                                         ; preds = %for.body.lr.ph, %for.body
  %indvars.iv = phi i64 [ 0, %for.body.lr.ph ], [ %indvars.iv.next, %for.body ]
  %mag.06 = phi float [ 0.000000e+00, %for.body.lr.ph ], [ %add, %for.body ]
  %arrayidx.i = getelementptr inbounds %class.btVector3, ptr %1, i64 %indvars.iv
  %2 = load float, ptr %arrayidx.i, align 4
  %arrayidx5.i.i = getelementptr inbounds i8, ptr %arrayidx.i, i64 4
  %3 = load float, ptr %arrayidx5.i.i, align 4
  %mul8.i.i = fmul float %3, %3
  %4 = tail call float @llvm.fmuladd.f32(float %2, float %2, float %mul8.i.i)
  %arrayidx10.i.i = getelementptr inbounds i8, ptr %arrayidx.i, i64 8
  %5 = load float, ptr %arrayidx10.i.i, align 4
  %6 = tail call noundef float @llvm.fmuladd.f32(float %5, float %5, float %4)
  %add = fadd float %mag.06, %6
  %indvars.iv.next = add nuw nsw i64 %indvars.iv, 1
  %exitcond.not = icmp eq i64 %indvars.iv.next, %wide.trip.count
  br i1 %exitcond.not, label %for.end, label %for.body, !llvm.loop !44

for.end:                                          ; preds = %for.body, %entry
  %mag.0.lcssa = phi float [ 0.000000e+00, %entry ], [ %add, %for.body ]
  %call.i = tail call noundef float @sqrtf(float noundef %mag.0.lcssa) #20
  ret float %call.i
}